target datalayout = "e-m:e-p270:32:32-p271:32:32-p272:64:64-i64:64-i128:128-f80:128-n8:16:32:64-S128"
target triple = "x86_64-pc-linux-gnu"

%struct.QemuMutex = type { %union.pthread_mutex_t, i8 }
%union.pthread_mutex_t = type { %struct.__pthread_mutex_s }
%struct.__pthread_mutex_s = type { i32, i32, i32, i32, i32, i16, i16, %struct.__pthread_internal_list }
%struct.__pthread_internal_list = type { ptr, ptr }
%struct.BlockJob = type { %struct.Job, i32, i64, %struct.RateLimit, ptr, %struct.Notifier, %struct.Notifier, %struct.Notifier, %struct.Notifier, %struct.Notifier, ptr }
%struct.Job = type { ptr, ptr, ptr, i8, i8, ptr, ptr, %struct.ProgressMeter, ptr, i32, i32, %struct.QEMUTimer, i32, i8, i8, i8, i8, i8, i8, i32, ptr, %struct.NotifierList, %struct.NotifierList, %struct.NotifierList, %struct.NotifierList, %struct.NotifierList, %struct.anon.0, ptr, %struct.anon.1 }
%struct.ProgressMeter = type { i64, i64, %struct.QemuMutex }
%struct.QEMUTimer = type { i64, ptr, ptr, ptr, ptr, i32, i32 }
%struct.NotifierList = type { %struct.anon }
%struct.anon = type { ptr }
%struct.anon.0 = type { ptr, ptr }
%struct.anon.1 = type { ptr, ptr }
%struct.RateLimit = type { %struct.QemuMutex, i64, i64, i64, i64, i64 }
%struct.Notifier = type { ptr, %struct.anon.2 }
%struct.anon.2 = type { ptr, ptr }
%struct.QemuLockable = type { ptr, ptr, ptr }
%struct.BlockJobDriver = type { %struct.JobDriver, ptr, ptr, ptr, ptr, ptr }
%struct.JobDriver = type { i64, i32, ptr, ptr, ptr, ptr, ptr, ptr, ptr, ptr, ptr, ptr, ptr }

@.str = private unnamed_addr constant [22 x i8] c"qemu_in_main_thread()\00", align 1
@.str.1 = private unnamed_addr constant [19 x i8] c"../qemu/blockjob.c\00", align 1
@__PRETTY_FUNCTION__.block_job_set_speed_locked = private unnamed_addr constant [64 x i8] c"_Bool block_job_set_speed_locked(BlockJob *, int64_t, Error **)\00", align 1
@__func__.block_job_set_speed_locked = private unnamed_addr constant [27 x i8] c"block_job_set_speed_locked\00", align 1
@.str.2 = private unnamed_addr constant [26 x i8] c"Parameter '%s' expects %s\00", align 1
@.str.3 = private unnamed_addr constant [6 x i8] c"speed\00", align 1
@.str.4 = private unnamed_addr constant [21 x i8] c"a non-negative value\00", align 1

; Function Attrs: inlinehint nounwind sspstrong uwtable
define internal void @qemu_lockable_unlock(ptr noundef %0) #4 {
  %2 = alloca ptr, align 8
  store ptr %0, ptr %2, align 8
  %3 = load ptr, ptr %2, align 8
  %4 = getelementptr inbounds nuw %struct.QemuLockable, ptr %3, i32 0, i32 2
  %5 = load ptr, ptr %4, align 8
  %6 = load ptr, ptr %2, align 8
  %7 = getelementptr inbounds nuw %struct.QemuLockable, ptr %6, i32 0, i32 0
  %8 = load ptr, ptr %7, align 8
  call void %5(ptr noundef %8)
  ret void
}

; Function Attrs: inlinehint nounwind sspstrong uwtable
define internal void @qemu_lockable_auto_unlock(ptr noundef %0) #4 {
  %2 = alloca ptr, align 8
  store ptr %0, ptr %2, align 8
  %3 = load ptr, ptr %2, align 8
  %4 = icmp ne ptr %3, null
  br i1 %4, label %5, label %7

5:                                                ; preds = %1
  %6 = load ptr, ptr %2, align 8
  call void @qemu_lockable_unlock(ptr noundef %6)
  br label %7

7:                                                ; preds = %5, %1
  ret void
}

; Function Attrs: inlinehint nounwind sspstrong uwtable
define internal void @glib_autoptr_clear_QemuLockable(ptr noundef %0) #4 {
  %2 = alloca ptr, align 8
  store ptr %0, ptr %2, align 8
  %3 = load ptr, ptr %2, align 8
  %4 = icmp ne ptr %3, null
  br i1 %4, label %5, label %7

5:                                                ; preds = %1
  %6 = load ptr, ptr %2, align 8
  call void @qemu_lockable_auto_unlock(ptr noundef %6)
  br label %7

7:                                                ; preds = %5, %1
  ret void
}

; Function Attrs: inlinehint nounwind sspstrong uwtable
define internal void @qemu_lockable_lock(ptr noundef %0) #4 {
  %2 = alloca ptr, align 8
  store ptr %0, ptr %2, align 8
  %3 = load ptr, ptr %2, align 8
  %4 = getelementptr inbounds nuw %struct.QemuLockable, ptr %3, i32 0, i32 1
  %5 = load ptr, ptr %4, align 8
  %6 = load ptr, ptr %2, align 8
  %7 = getelementptr inbounds nuw %struct.QemuLockable, ptr %6, i32 0, i32 0
  %8 = load ptr, ptr %7, align 8
  call void %5(ptr noundef %8)
  ret void
}

; Function Attrs: inlinehint nounwind sspstrong uwtable
define internal void @glib_autoptr_cleanup_QemuLockable(ptr noundef %0) #4 {
  %2 = alloca ptr, align 8
  store ptr %0, ptr %2, align 8
  %3 = load ptr, ptr %2, align 8
  %4 = load ptr, ptr %3, align 8
  call void @glib_autoptr_clear_QemuLockable(ptr noundef %4)
  ret void
}

; Function Attrs: inlinehint nounwind sspstrong uwtable
define internal ptr @qemu_lockable_auto_lock(ptr noundef %0) #4 {
  %2 = alloca ptr, align 8
  store ptr %0, ptr %2, align 8
  %3 = load ptr, ptr %2, align 8
  call void @qemu_lockable_lock(ptr noundef %3)
  %4 = load ptr, ptr %2, align 8
  ret ptr %4
}

; Function Attrs: alwaysinline nounwind sspstrong uwtable
define internal ptr @qemu_make_lockable(ptr noundef %0, ptr noundef %1) #5 {
  %3 = alloca ptr, align 8
  %4 = alloca ptr, align 8
  store ptr %0, ptr %3, align 8
  store ptr %1, ptr %4, align 8
  %5 = load ptr, ptr %3, align 8
  %6 = icmp ne ptr %5, null
  br i1 %6, label %7, label %9

7:                                                ; preds = %2
  %8 = load ptr, ptr %4, align 8
  br label %10

9:                                                ; preds = %2
  br label %10

10:                                               ; preds = %9, %7
  %11 = phi ptr [ %8, %7 ], [ null, %9 ]
  ret ptr %11
}

; Function Attrs: inlinehint nounwind sspstrong uwtable
define internal void @ratelimit_set_speed(ptr noundef %0, i64 noundef %1, i64 noundef %2) #4 {
  %4 = alloca ptr, align 8
  %5 = alloca i64, align 8
  %6 = alloca i64, align 8
  %7 = alloca ptr, align 8
  %8 = alloca %struct.QemuLockable, align 8
  %9 = alloca double, align 8
  %10 = alloca double, align 8
  %11 = alloca double, align 8
  store ptr %0, ptr %4, align 8
  store i64 %1, ptr %5, align 8
  store i64 %2, ptr %6, align 8
  call void @llvm.lifetime.start.p0(i64 8, ptr %7) #12
  %12 = load ptr, ptr %4, align 8
  %13 = getelementptr inbounds nuw %struct.RateLimit, ptr %12, i32 0, i32 0
  %14 = getelementptr inbounds nuw %struct.QemuLockable, ptr %8, i32 0, i32 0
  %15 = load ptr, ptr %4, align 8
  %16 = getelementptr inbounds nuw %struct.RateLimit, ptr %15, i32 0, i32 0
  store ptr %16, ptr %14, align 8
  %17 = getelementptr inbounds nuw %struct.QemuLockable, ptr %8, i32 0, i32 1
  store ptr @qemu_lockable_mutex_lock, ptr %17, align 8
  %18 = getelementptr inbounds nuw %struct.QemuLockable, ptr %8, i32 0, i32 2
  store ptr @qemu_lockable_mutex_unlock, ptr %18, align 8
  %19 = call ptr @qemu_make_lockable(ptr noundef %13, ptr noundef %8)
  %20 = call ptr @qemu_lockable_auto_lock(ptr noundef %19)
  store ptr %20, ptr %7, align 8
  %21 = load i64, ptr %6, align 8
  %22 = load ptr, ptr %4, align 8
  %23 = getelementptr inbounds nuw %struct.RateLimit, ptr %22, i32 0, i32 4
  store i64 %21, ptr %23, align 8
  %24 = load i64, ptr %5, align 8
  %25 = icmp eq i64 %24, 0
  br i1 %25, label %26, label %29

26:                                               ; preds = %3
  %27 = load ptr, ptr %4, align 8
  %28 = getelementptr inbounds nuw %struct.RateLimit, ptr %27, i32 0, i32 3
  store i64 0, ptr %28, align 8
  br label %49

29:                                               ; preds = %3
  call void @llvm.lifetime.start.p0(i64 8, ptr %9) #12
  %30 = load i64, ptr %5, align 8
  %31 = uitofp i64 %30 to double
  %32 = load i64, ptr %6, align 8
  %33 = uitofp i64 %32 to double
  %34 = fmul double %31, %33
  %35 = fdiv double %34, 1.000000e+09
  store double %35, ptr %9, align 8
  call void @llvm.lifetime.start.p0(i64 8, ptr %10) #12
  store double 1.000000e+00, ptr %10, align 8
  %36 = load double, ptr %9, align 8
  %37 = load double, ptr %10, align 8
  %38 = fcmp ogt double %36, %37
  br i1 %38, label %39, label %41

39:                                               ; preds = %29
  %40 = load double, ptr %9, align 8
  br label %43

41:                                               ; preds = %29
  %42 = load double, ptr %10, align 8
  br label %43

43:                                               ; preds = %41, %39
  %44 = phi double [ %40, %39 ], [ %42, %41 ]
  store double %44, ptr %11, align 8
  call void @llvm.lifetime.end.p0(i64 8, ptr %10) #12
  call void @llvm.lifetime.end.p0(i64 8, ptr %9) #12
  %45 = load double, ptr %11, align 8
  %46 = fptoui double %45 to i64
  %47 = load ptr, ptr %4, align 8
  %48 = getelementptr inbounds nuw %struct.RateLimit, ptr %47, i32 0, i32 3
  store i64 %46, ptr %48, align 8
  br label %49

49:                                               ; preds = %43, %26
  call void @glib_autoptr_cleanup_QemuLockable(ptr noundef %7)
  call void @llvm.lifetime.end.p0(i64 8, ptr %7) #12
  ret void
}

; Function Attrs: nounwind sspstrong uwtable
define dso_local ptr @block_job_driver(ptr noundef %0) #0 {
  %2 = alloca ptr, align 8
  %3 = alloca ptr, align 8
  %4 = alloca ptr, align 8
  store ptr %0, ptr %2, align 8
  call void @llvm.lifetime.start.p0(i64 8, ptr %3) #12
  %5 = load ptr, ptr %2, align 8
  %6 = getelementptr inbounds nuw %struct.BlockJob, ptr %5, i32 0, i32 0
  %7 = getelementptr inbounds nuw %struct.Job, ptr %6, i32 0, i32 1
  %8 = load ptr, ptr %7, align 8
  store ptr %8, ptr %3, align 8
  %9 = load ptr, ptr %3, align 8
  %10 = getelementptr inbounds i8, ptr %9, i64 0
  store ptr %10, ptr %4, align 8
  call void @llvm.lifetime.end.p0(i64 8, ptr %3) #12
  %11 = load ptr, ptr %4, align 8
  ret ptr %11
}

; Function Attrs: nounwind sspstrong uwtable
define dso_local zeroext i1 @block_job_set_speed_locked(ptr noundef %0, i64 noundef %1, ptr noundef %2) #0 {
  %4 = alloca i1, align 1
  %5 = alloca ptr, align 8
  %6 = alloca i64, align 8
  %7 = alloca ptr, align 8
  %8 = alloca ptr, align 8
  %9 = alloca i64, align 8
  %10 = alloca i32, align 4
  store ptr %0, ptr %5, align 8
  store i64 %1, ptr %6, align 8
  store ptr %2, ptr %7, align 8
  call void @llvm.lifetime.start.p0(i64 8, ptr %8) #12
  %11 = load ptr, ptr %5, align 8
  %12 = call ptr @block_job_driver(ptr noundef %11)
  store ptr %12, ptr %8, align 8
  call void @llvm.lifetime.start.p0(i64 8, ptr %9) #12
  %13 = load ptr, ptr %5, align 8
  %14 = getelementptr inbounds nuw %struct.BlockJob, ptr %13, i32 0, i32 2
  %15 = load i64, ptr %14, align 8
  store i64 %15, ptr %9, align 8
  br label %16

16:                                               ; preds = %3
  %17 = call zeroext i1 @qemu_in_main_thread()
  br i1 %17, label %18, label %19

18:                                               ; preds = %16
  br label %20

19:                                               ; preds = %16
  call void @__assert_fail(ptr noundef @.str, ptr noundef @.str.1, i32 noundef 278, ptr noundef @__PRETTY_FUNCTION__.block_job_set_speed_locked) #13
  unreachable

20:                                               ; preds = %18
  br label %21

21:                                               ; preds = %20
  br label %22

22:                                               ; preds = %21
  %23 = load ptr, ptr %5, align 8
  %24 = getelementptr inbounds nuw %struct.BlockJob, ptr %23, i32 0, i32 0
  %25 = load ptr, ptr %7, align 8
  %26 = call i32 @job_apply_verb_locked(ptr noundef %24, i32 noundef 3, ptr noundef %25)
  %27 = icmp slt i32 %26, 0
  br i1 %27, label %28, label %29

28:                                               ; preds = %22
  store i1 false, ptr %4, align 1
  store i32 1, ptr %10, align 4
  br label %62

29:                                               ; preds = %22
  %30 = load i64, ptr %6, align 8
  %31 = icmp slt i64 %30, 0
  br i1 %31, label %32, label %34

32:                                               ; preds = %29
  %33 = load ptr, ptr %7, align 8
  call void (ptr, ptr, i32, ptr, ptr, ...) @error_setg_internal(ptr noundef %33, ptr noundef @.str.1, i32 noundef 285, ptr noundef @__func__.block_job_set_speed_locked, ptr noundef @.str.2, ptr noundef @.str.3, ptr noundef @.str.4)
  store i1 false, ptr %4, align 1
  store i32 1, ptr %10, align 4
  br label %62

34:                                               ; preds = %29
  %35 = load ptr, ptr %5, align 8
  %36 = getelementptr inbounds nuw %struct.BlockJob, ptr %35, i32 0, i32 3
  %37 = load i64, ptr %6, align 8
  call void @ratelimit_set_speed(ptr noundef %36, i64 noundef %37, i64 noundef 100000000)
  %38 = load i64, ptr %6, align 8
  %39 = load ptr, ptr %5, align 8
  %40 = getelementptr inbounds nuw %struct.BlockJob, ptr %39, i32 0, i32 2
  store i64 %38, ptr %40, align 8
  %41 = load ptr, ptr %8, align 8
  %42 = getelementptr inbounds nuw %struct.BlockJobDriver, ptr %41, i32 0, i32 3
  %43 = load ptr, ptr %42, align 8
  %44 = icmp ne ptr %43, null
  br i1 %44, label %45, label %51

45:                                               ; preds = %34
  call void @job_unlock()
  %46 = load ptr, ptr %8, align 8
  %47 = getelementptr inbounds nuw %struct.BlockJobDriver, ptr %46, i32 0, i32 3
  %48 = load ptr, ptr %47, align 8
  %49 = load ptr, ptr %5, align 8
  %50 = load i64, ptr %6, align 8
  call void %48(ptr noundef %49, i64 noundef %50)
  call void @job_lock()
  br label %51

51:                                               ; preds = %45, %34
  %52 = load i64, ptr %6, align 8
  %53 = icmp ne i64 %52, 0
  br i1 %53, label %54, label %59

54:                                               ; preds = %51
  %55 = load i64, ptr %6, align 8
  %56 = load i64, ptr %9, align 8
  %57 = icmp sle i64 %55, %56
  br i1 %57, label %58, label %59

58:                                               ; preds = %54
  store i1 true, ptr %4, align 1
  store i32 1, ptr %10, align 4
  br label %62

59:                                               ; preds = %54, %51
  %60 = load ptr, ptr %5, align 8
  %61 = getelementptr inbounds nuw %struct.BlockJob, ptr %60, i32 0, i32 0
  call void @job_enter_cond_locked(ptr noundef %61, ptr noundef @job_timer_pending)
  store i1 true, ptr %4, align 1
  store i32 1, ptr %10, align 4
  br label %62

62:                                               ; preds = %59, %58, %32, %28
  call void @llvm.lifetime.end.p0(i64 8, ptr %9) #12
  call void @llvm.lifetime.end.p0(i64 8, ptr %8) #12
  %63 = load i1, ptr %4, align 1
  ret i1 %63
}