; Function Attrs: nounwind sspstrong uwtable
define dso_local noundef zeroext i1 @block_job_set_speed_locked(ptr noundef %0, i64 noundef %1, ptr noundef %2) local_unnamed_addr #0 {
  %4 = getelementptr inbounds nuw i8, ptr %0, i64 8
  %5 = load ptr, ptr %4, align 8
  %6 = getelementptr inbounds nuw i8, ptr %0, i64 288
  %7 = load i64, ptr %6, align 8
  %8 = tail call zeroext i1 @qemu_in_main_thread() #8
  br i1 %8, label %10, label %9

9:                                                ; preds = %3
  tail call void @__assert_fail(ptr noundef nonnull @.str, ptr noundef nonnull @.str.1, i32 noundef 278, ptr noundef nonnull @__PRETTY_FUNCTION__.block_job_set_speed_locked) #9
  unreachable

10:                                               ; preds = %3
  %11 = tail call i32 @job_apply_verb_locked(ptr noundef nonnull %0, i32 noundef 3, ptr noundef %2) #8
  %12 = icmp slt i32 %11, 0
  br i1 %12, label %36, label %13

13:                                               ; preds = %10
  %14 = icmp slt i64 %1, 0
  br i1 %14, label %15, label %16

15:                                               ; preds = %13
  tail call void (ptr, ptr, i32, ptr, ptr, ...) @error_setg_internal(ptr noundef %2, ptr noundef nonnull @.str.1, i32 noundef 285, ptr noundef nonnull @__func__.block_job_set_speed_locked, ptr noundef nonnull @.str.2, ptr noundef nonnull @.str.3, ptr noundef nonnull @.str.4) #8
  br label %36

16:                                               ; preds = %13
  %17 = getelementptr inbounds nuw i8, ptr %0, i64 296
  %18 = load atomic i64, ptr @qemu_mutex_lock_func monotonic, align 8
  %19 = inttoptr i64 %18 to ptr
  tail call void %19(ptr noundef nonnull %17, ptr noundef nonnull @.str.13, i32 noundef 56) #8
  %20 = getelementptr inbounds nuw i8, ptr %0, i64 368
  store i64 100000000, ptr %20, align 8
  %21 = icmp eq i64 %1, 0
  br i1 %21, label %ratelimit_set_speed.exit, label %22

22:                                               ; preds = %16
  %23 = uitofp nneg i64 %1 to double
  %24 = fmul double %23, 1.000000e+08
  %25 = fdiv double %24, 1.000000e+09
  %26 = fcmp ogt double %25, 1.000000e+00
  %27 = select i1 %26, double %25, double 1.000000e+00
  %28 = fptoui double %27 to i64
  br label %ratelimit_set_speed.exit

ratelimit_set_speed.exit:                         ; preds = %16, %22
  %.sink.i = phi i64 [ %28, %22 ], [ 0, %16 ]
  %29 = getelementptr inbounds nuw i8, ptr %0, i64 360
  store i64 %.sink.i, ptr %29, align 8
  tail call void @qemu_mutex_unlock_impl(ptr noundef nonnull %17, ptr noundef nonnull @.str.13, i32 noundef 56) #8
  store i64 %1, ptr %6, align 8
  %30 = getelementptr inbounds nuw i8, ptr %5, i64 120
  %31 = load ptr, ptr %30, align 8
  %.not = icmp eq ptr %31, null
  br i1 %.not, label %34, label %32

32:                                               ; preds = %ratelimit_set_speed.exit
  tail call void @job_unlock() #8
  %33 = load ptr, ptr %30, align 8
  tail call void %33(ptr noundef nonnull %0, i64 noundef %1) #8
  tail call void @job_lock() #8
  br label %34

34:                                               ; preds = %32, %ratelimit_set_speed.exit
  %.not20 = icmp sgt i64 %1, %7
  %or.cond = select i1 %21, i1 true, i1 %.not20
  br i1 %or.cond, label %35, label %36

35:                                               ; preds = %34
  tail call void @job_enter_cond_locked(ptr noundef nonnull %0, ptr noundef nonnull @job_timer_pending) #8
  br label %36

36:                                               ; preds = %34, %10, %35, %15
  %.0 = phi i1 [ false, %15 ], [ true, %35 ], [ false, %10 ], [ true, %34 ]
  ret i1 %.0
}